target datalayout = "e-m:e-p270:32:32-p271:32:32-p272:64:64-i64:64-i128:128-f80:128-n8:16:32:64-S128"
target triple = "x86_64-pc-linux-gnu"

%struct.evhttp_connection = type { %struct.anon, ptr, %struct.event, ptr, i16, ptr, i16, ptr, i64, i64, i32, %struct.timeval, %struct.timeval, %struct.timeval, i32, i32, %struct.timeval, i32, ptr, %struct.evcon_requestq, ptr, ptr, ptr, ptr, %struct.event_callback, ptr, ptr, i32, ptr }
%struct.anon = type { ptr, ptr }
%struct.event = type { %struct.event_callback, %union.anon.1, i32, i16, i16, ptr, %union.anon.3, %struct.timeval }
%union.anon.1 = type { %struct.anon.2 }
%struct.anon.2 = type { ptr, ptr }
%union.anon.3 = type { %struct.anon.4 }
%struct.anon.4 = type { %struct.anon.5, %struct.timeval }
%struct.anon.5 = type { ptr, ptr }
%struct.timeval = type { i64, i64 }
%struct.evcon_requestq = type { ptr, ptr }
%struct.event_callback = type { %struct.anon.0, i16, i8, i8, %union.anon, ptr }
%struct.anon.0 = type { ptr, ptr }
%union.anon = type { ptr }
%struct.evhttp_request = type { %struct.anon.8, ptr, i32, ptr, ptr, ptr, i16, ptr, i32, i32, i64, i64, ptr, ptr, i8, i8, i32, ptr, ptr, i64, i8, ptr, ptr, ptr, ptr, ptr, ptr, ptr, ptr }
%struct.anon.8 = type { ptr, ptr }
%struct.evkeyvalq = type { ptr, ptr }
%struct.evkeyval = type { %struct.anon.10, ptr, ptr }
%struct.anon.10 = type { ptr, ptr }

@.str.6 = private unnamed_addr constant [2 x i8] c":\00", align 1
@.str.7 = private unnamed_addr constant [2 x i8] c" \00", align 1

; Function Attrs: nounwind uwtable
define internal i32 @evhttp_append_to_last_header(ptr noundef %0, ptr noundef %1) #0 {
  %3 = alloca i32, align 4
  %4 = alloca ptr, align 8
  %5 = alloca ptr, align 8
  %6 = alloca ptr, align 8
  %7 = alloca ptr, align 8
  %8 = alloca i64, align 8
  %9 = alloca i64, align 8
  %10 = alloca i32, align 4
  store ptr %0, ptr %4, align 8
  store ptr %1, ptr %5, align 8
  call void @llvm.lifetime.start.p0(i64 8, ptr %6) #11
  %11 = load ptr, ptr %4, align 8
  %12 = getelementptr inbounds nuw %struct.evkeyvalq, ptr %11, i32 0, i32 1
  %13 = load ptr, ptr %12, align 8
  %14 = getelementptr inbounds nuw %struct.evkeyvalq, ptr %13, i32 0, i32 1
  %15 = load ptr, ptr %14, align 8
  %16 = load ptr, ptr %15, align 8
  store ptr %16, ptr %6, align 8
  call void @llvm.lifetime.start.p0(i64 8, ptr %7) #11
  call void @llvm.lifetime.start.p0(i64 8, ptr %8) #11
  call void @llvm.lifetime.start.p0(i64 8, ptr %9) #11
  %17 = load ptr, ptr %6, align 8
  %18 = icmp eq ptr %17, null
  br i1 %18, label %19, label %20

19:                                               ; preds = %2
  store i32 -1, ptr %3, align 4
  store i32 1, ptr %10, align 4
  br label %69

20:                                               ; preds = %2
  %21 = load ptr, ptr %6, align 8
  %22 = getelementptr inbounds nuw %struct.evkeyval, ptr %21, i32 0, i32 2
  %23 = load ptr, ptr %22, align 8
  %24 = call i64 @strlen(ptr noundef %23) #12
  store i64 %24, ptr %8, align 8
  br label %25

25:                                               ; preds = %37, %20
  %26 = load ptr, ptr %5, align 8
  %27 = load i8, ptr %26, align 1
  %28 = sext i8 %27 to i32
  %29 = icmp eq i32 %28, 32
  br i1 %29, label %35, label %30

30:                                               ; preds = %25
  %31 = load ptr, ptr %5, align 8
  %32 = load i8, ptr %31, align 1
  %33 = sext i8 %32 to i32
  %34 = icmp eq i32 %33, 9
  br label %35

35:                                               ; preds = %30, %25
  %36 = phi i1 [ true, %25 ], [ %34, %30 ]
  br i1 %36, label %37, label %40

37:                                               ; preds = %35
  %38 = load ptr, ptr %5, align 8
  %39 = getelementptr inbounds nuw i8, ptr %38, i32 1
  store ptr %39, ptr %5, align 8
  br label %25, !llvm.loop !13

40:                                               ; preds = %35
  %41 = load ptr, ptr %5, align 8
  call void @evutil_rtrim_lws_(ptr noundef %41)
  %42 = load ptr, ptr %5, align 8
  %43 = call i64 @strlen(ptr noundef %42) #12
  store i64 %43, ptr %9, align 8
  %44 = load ptr, ptr %6, align 8
  %45 = getelementptr inbounds nuw %struct.evkeyval, ptr %44, i32 0, i32 2
  %46 = load ptr, ptr %45, align 8
  %47 = load i64, ptr %8, align 8
  %48 = load i64, ptr %9, align 8
  %49 = add i64 %47, %48
  %50 = add i64 %49, 2
  %51 = call ptr @event_mm_realloc_(ptr noundef %46, i64 noundef %50)
  store ptr %51, ptr %7, align 8
  %52 = load ptr, ptr %7, align 8
  %53 = icmp eq ptr %52, null
  br i1 %53, label %54, label %55

54:                                               ; preds = %40
  store i32 -1, ptr %3, align 4
  store i32 1, ptr %10, align 4
  br label %69

55:                                               ; preds = %40
  %56 = load ptr, ptr %7, align 8
  %57 = load i64, ptr %8, align 8
  %58 = getelementptr inbounds nuw i8, ptr %56, i64 %57
  store i8 32, ptr %58, align 1
  %59 = load ptr, ptr %7, align 8
  %60 = load i64, ptr %8, align 8
  %61 = getelementptr inbounds nuw i8, ptr %59, i64 %60
  %62 = getelementptr inbounds i8, ptr %61, i64 1
  %63 = load ptr, ptr %5, align 8
  %64 = load i64, ptr %9, align 8
  %65 = add i64 %64, 1
  call void @llvm.memcpy.p0.p0.i64(ptr align 1 %62, ptr align 1 %63, i64 %65, i1 false)
  %66 = load ptr, ptr %7, align 8
  %67 = load ptr, ptr %6, align 8
  %68 = getelementptr inbounds nuw %struct.evkeyval, ptr %67, i32 0, i32 2
  store ptr %66, ptr %68, align 8
  store i32 0, ptr %3, align 4
  store i32 1, ptr %10, align 4
  br label %69

69:                                               ; preds = %55, %54, %19
  call void @llvm.lifetime.end.p0(i64 8, ptr %9) #11
  call void @llvm.lifetime.end.p0(i64 8, ptr %8) #11
  call void @llvm.lifetime.end.p0(i64 8, ptr %7) #11
  call void @llvm.lifetime.end.p0(i64 8, ptr %6) #11
  %70 = load i32, ptr %3, align 4
  ret i32 %70
}

; Function Attrs: nounwind uwtable
define i32 @evhttp_parse_headers_(ptr noundef %0, ptr noundef %1) #0 {
  %3 = alloca i32, align 4
  %4 = alloca ptr, align 8
  %5 = alloca ptr, align 8
  %6 = alloca i32, align 4
  %7 = alloca ptr, align 8
  %8 = alloca i32, align 4
  %9 = alloca ptr, align 8
  %10 = alloca i64, align 8
  %11 = alloca ptr, align 8
  %12 = alloca ptr, align 8
  %13 = alloca i32, align 4
  store ptr %0, ptr %4, align 8
  store ptr %1, ptr %5, align 8
  call void @llvm.lifetime.start.p0(i64 4, ptr %6) #11
  store i32 -1, ptr %6, align 4
  call void @llvm.lifetime.start.p0(i64 8, ptr %7) #11
  call void @llvm.lifetime.start.p0(i64 4, ptr %8) #11
  store i32 0, ptr %8, align 4
  call void @llvm.lifetime.start.p0(i64 8, ptr %9) #11
  %14 = load ptr, ptr %4, align 8
  %15 = getelementptr inbounds nuw %struct.evhttp_request, ptr %14, i32 0, i32 3
  %16 = load ptr, ptr %15, align 8
  store ptr %16, ptr %9, align 8
  call void @llvm.lifetime.start.p0(i64 8, ptr %10) #11
  br label %17

17:                                               ; preds = %89, %87, %2
  %18 = load ptr, ptr %5, align 8
  %19 = call ptr @evbuffer_readln(ptr noundef %18, ptr noundef %10, i32 noundef 1)
  store ptr %19, ptr %7, align 8
  %20 = icmp ne ptr %19, null
  br i1 %20, label %21, label %90

21:                                               ; preds = %17
  call void @llvm.lifetime.start.p0(i64 8, ptr %11) #11
  call void @llvm.lifetime.start.p0(i64 8, ptr %12) #11
  %22 = load i64, ptr %10, align 8
  %23 = load ptr, ptr %4, align 8
  %24 = getelementptr inbounds nuw %struct.evhttp_request, ptr %23, i32 0, i32 10
  %25 = load i64, ptr %24, align 8
  %26 = add i64 %25, %22
  store i64 %26, ptr %24, align 8
  %27 = load ptr, ptr %4, align 8
  %28 = getelementptr inbounds nuw %struct.evhttp_request, ptr %27, i32 0, i32 1
  %29 = load ptr, ptr %28, align 8
  %30 = icmp ne ptr %29, null
  br i1 %30, label %31, label %42

31:                                               ; preds = %21
  %32 = load ptr, ptr %4, align 8
  %33 = getelementptr inbounds nuw %struct.evhttp_request, ptr %32, i32 0, i32 10
  %34 = load i64, ptr %33, align 8
  %35 = load ptr, ptr %4, align 8
  %36 = getelementptr inbounds nuw %struct.evhttp_request, ptr %35, i32 0, i32 1
  %37 = load ptr, ptr %36, align 8
  %38 = getelementptr inbounds nuw %struct.evhttp_connection, ptr %37, i32 0, i32 8
  %39 = load i64, ptr %38, align 8
  %40 = icmp ugt i64 %34, %39
  br i1 %40, label %41, label %42

41:                                               ; preds = %31
  store i32 -3, ptr %6, align 4
  store i32 4, ptr %13, align 4
  br label %87

42:                                               ; preds = %31, %21
  %43 = load ptr, ptr %7, align 8
  %44 = load i8, ptr %43, align 1
  %45 = sext i8 %44 to i32
  %46 = icmp eq i32 %45, 0
  br i1 %46, label %47, label %49

47:                                               ; preds = %42
  store i32 1, ptr %8, align 4
  %48 = load ptr, ptr %7, align 8
  call void @event_mm_free_(ptr noundef %48)
  store i32 3, ptr %13, align 4
  br label %87

49:                                               ; preds = %42
  %50 = load ptr, ptr %7, align 8
  %51 = load i8, ptr %50, align 1
  %52 = sext i8 %51 to i32
  %53 = icmp eq i32 %52, 32
  br i1 %53, label %59, label %54

54:                                               ; preds = %49
  %55 = load ptr, ptr %7, align 8
  %56 = load i8, ptr %55, align 1
  %57 = sext i8 %56 to i32
  %58 = icmp eq i32 %57, 9
  br i1 %58, label %59, label %67

59:                                               ; preds = %54, %49
  %60 = load ptr, ptr %9, align 8
  %61 = load ptr, ptr %7, align 8
  %62 = call i32 @evhttp_append_to_last_header(ptr noundef %60, ptr noundef %61)
  %63 = icmp eq i32 %62, -1
  br i1 %63, label %64, label %65

64:                                               ; preds = %59
  store i32 4, ptr %13, align 4
  br label %87

65:                                               ; preds = %59
  %66 = load ptr, ptr %7, align 8
  call void @event_mm_free_(ptr noundef %66)
  store i32 2, ptr %13, align 4
  br label %87, !llvm.loop !12

67:                                               ; preds = %54
  %68 = load ptr, ptr %7, align 8
  store ptr %68, ptr %12, align 8
  %69 = call ptr @strsep(ptr noundef %12, ptr noundef @.str.6) #11
  store ptr %69, ptr %11, align 8
  %70 = load ptr, ptr %12, align 8
  %71 = icmp eq ptr %70, null
  br i1 %71, label %72, label %73

72:                                               ; preds = %67
  store i32 4, ptr %13, align 4
  br label %87

73:                                               ; preds = %67
  %74 = load ptr, ptr %12, align 8
  %75 = call i64 @strspn(ptr noundef %74, ptr noundef @.str.7) #12
  %76 = load ptr, ptr %12, align 8
  %77 = getelementptr inbounds nuw i8, ptr %76, i64 %75
  store ptr %77, ptr %12, align 8
  %78 = load ptr, ptr %12, align 8
  call void @evutil_rtrim_lws_(ptr noundef %78)
  %79 = load ptr, ptr %9, align 8
  %80 = load ptr, ptr %11, align 8
  %81 = load ptr, ptr %12, align 8
  %82 = call i32 @evhttp_add_header(ptr noundef %79, ptr noundef %80, ptr noundef %81)
  %83 = icmp eq i32 %82, -1
  br i1 %83, label %84, label %85

84:                                               ; preds = %73
  store i32 4, ptr %13, align 4
  br label %87

85:                                               ; preds = %73
  %86 = load ptr, ptr %7, align 8
  call void @event_mm_free_(ptr noundef %86)
  store i32 0, ptr %13, align 4
  br label %87

87:                                               ; preds = %84, %72, %64, %41, %85, %65, %47
  call void @llvm.lifetime.end.p0(i64 8, ptr %12) #11
  call void @llvm.lifetime.end.p0(i64 8, ptr %11) #11
  %88 = load i32, ptr %13, align 4
  switch i32 %88, label %118 [
    i32 0, label %89
    i32 3, label %90
    i32 2, label %17
    i32 4, label %115
  ]

89:                                               ; preds = %87
  br label %17, !llvm.loop !12

90:                                               ; preds = %87, %17
  %91 = load i32, ptr %8, align 4
  %92 = icmp eq i32 %91, 0
  br i1 %92, label %93, label %113

93:                                               ; preds = %90
  %94 = load ptr, ptr %4, align 8
  %95 = getelementptr inbounds nuw %struct.evhttp_request, ptr %94, i32 0, i32 1
  %96 = load ptr, ptr %95, align 8
  %97 = icmp ne ptr %96, null
  br i1 %97, label %98, label %112

98:                                               ; preds = %93
  %99 = load ptr, ptr %4, align 8
  %100 = getelementptr inbounds nuw %struct.evhttp_request, ptr %99, i32 0, i32 10
  %101 = load i64, ptr %100, align 8
  %102 = load ptr, ptr %5, align 8
  %103 = call i64 @evbuffer_get_length(ptr noundef %102)
  %104 = add i64 %101, %103
  %105 = load ptr, ptr %4, align 8
  %106 = getelementptr inbounds nuw %struct.evhttp_request, ptr %105, i32 0, i32 1
  %107 = load ptr, ptr %106, align 8
  %108 = getelementptr inbounds nuw %struct.evhttp_connection, ptr %107, i32 0, i32 8
  %109 = load i64, ptr %108, align 8
  %110 = icmp ugt i64 %104, %109
  br i1 %110, label %111, label %112

111:                                              ; preds = %98
  store i32 -3, ptr %3, align 4
  store i32 1, ptr %13, align 4
  br label %118

112:                                              ; preds = %98, %93
  br label %113

113:                                              ; preds = %112, %90
  %114 = load i32, ptr %8, align 4
  store i32 %114, ptr %3, align 4
  store i32 1, ptr %13, align 4
  br label %118

115:                                              ; preds = %87
  %116 = load ptr, ptr %7, align 8
  call void @event_mm_free_(ptr noundef %116)
  %117 = load i32, ptr %6, align 4
  store i32 %117, ptr %3, align 4
  store i32 1, ptr %13, align 4
  br label %118

118:                                              ; preds = %115, %113, %111, %87
  call void @llvm.lifetime.end.p0(i64 8, ptr %10) #11
  call void @llvm.lifetime.end.p0(i64 8, ptr %9) #11
  call void @llvm.lifetime.end.p0(i64 4, ptr %8) #11
  call void @llvm.lifetime.end.p0(i64 8, ptr %7) #11
  call void @llvm.lifetime.end.p0(i64 4, ptr %6) #11
  %119 = load i32, ptr %3, align 4
  ret i32 %119
}